target datalayout = "e-m:e-p270:32:32-p271:32:32-p272:64:64-i64:64-i128:128-f80:128-n8:16:32:64-S128"
target triple = "x86_64-unknown-linux-gnu"

%"class.std::__cxx11::basic_string" = type { %"struct.std::__cxx11::basic_string<char>::_Alloc_hider", i64, %union.anon }
%"struct.std::__cxx11::basic_string<char>::_Alloc_hider" = type { ptr }
%union.anon = type { i64, [8 x i8] }
%class.symbol = type { ptr }
%class.app = type { %class.expr, ptr, i32, [0 x ptr] }
%class.expr = type { %class.ast }
%class.ast = type { i32, i24, i32, i32 }
%class.decl = type { %class.ast, %class.symbol, ptr }
%class.decl_info = type <{ i32, i32, %class.vector.146, i8, [7 x i8] }>
%class.vector.146 = type { ptr }
%struct._Save_errno = type { i32 }

@.str.7 = private unnamed_addr constant [4 x i8] c"sk!\00", align 1
@.str.9 = private unnamed_addr constant [5 x i8] c"stoi\00", align 1

; Function Attrs: mustprogress nounwind uwtable
define linkonce_odr hidden noundef i32 @_ZNK9decl_info13get_family_idEv(ptr noundef nonnull align 8 dereferenceable(17) %this) #5 comdat align 2 {
entry:
  %this.addr = alloca ptr, align 8
  store ptr %this, ptr %this.addr, align 8
  %this1 = load ptr, ptr %this.addr, align 8
  %m_family_id = getelementptr inbounds %class.decl_info, ptr %this1, i32 0, i32 0
  %0 = load i32, ptr %m_family_id, align 8
  ret i32 %0
}

; Function Attrs: mustprogress nounwind uwtable
define linkonce_odr hidden noundef zeroext i1 @_ZZN9__gnu_cxx6__stoaIlicJiEEET0_PFT_PKT1_PPS3_DpT2_EPKcS5_PmS9_EN10_Range_chk6_S_chkElSt17integral_constantIbLb1EE(i64 noundef %__val) #5 comdat align 2 {
entry:
  %__val.addr = alloca i64, align 8
  store i64 %__val, ptr %__val.addr, align 8
  %0 = load i64, ptr %__val.addr, align 8
  %cmp = icmp slt i64 %0, -2147483648
  br i1 %cmp, label %lor.end, label %lor.rhs

lor.rhs:                                          ; preds = %entry
  %1 = load i64, ptr %__val.addr, align 8
  %cmp1 = icmp sgt i64 %1, 2147483647
  br label %lor.end

lor.end:                                          ; preds = %lor.rhs, %entry
  %2 = phi i1 [ true, %entry ], [ %cmp1, %lor.rhs ]
  ret i1 %2
}

; Function Attrs: mustprogress nounwind uwtable
define linkonce_odr hidden void @_ZZN9__gnu_cxx6__stoaIlicJiEEET0_PFT_PKT1_PPS3_DpT2_EPKcS5_PmS9_EN11_Save_errnoD2Ev(ptr noundef nonnull align 4 dereferenceable(4) %this) unnamed_addr #5 comdat align 2 {
entry:
  %this.addr = alloca ptr, align 8
  store ptr %this, ptr %this.addr, align 8
  %this1 = load ptr, ptr %this.addr, align 8
  %call = call ptr @__errno_location() #18
  %0 = load i32, ptr %call, align 4
  %cmp = icmp eq i32 %0, 0
  br i1 %cmp, label %if.then, label %if.end

if.then:                                          ; preds = %entry
  %_M_errno = getelementptr inbounds %struct._Save_errno, ptr %this1, i32 0, i32 0
  %1 = load i32, ptr %_M_errno, align 4
  %call2 = call ptr @__errno_location() #18
  store i32 %1, ptr %call2, align 4
  br label %if.end

if.end:                                           ; preds = %if.then, %entry
  ret void
}

; Function Attrs: mustprogress nounwind uwtable
define linkonce_odr hidden void @_ZZN9__gnu_cxx6__stoaIlicJiEEET0_PFT_PKT1_PPS3_DpT2_EPKcS5_PmS9_EN11_Save_errnoC2Ev(ptr noundef nonnull align 4 dereferenceable(4) %this) unnamed_addr #5 comdat align 2 {
entry:
  %this.addr = alloca ptr, align 8
  store ptr %this, ptr %this.addr, align 8
  %this1 = load ptr, ptr %this.addr, align 8
  %_M_errno = getelementptr inbounds %struct._Save_errno, ptr %this1, i32 0, i32 0
  %call = call ptr @__errno_location() #18
  %0 = load i32, ptr %call, align 4
  store i32 %0, ptr %_M_errno, align 4
  %call2 = call ptr @__errno_location() #18
  store i32 0, ptr %call2, align 4
  ret void
}

; Function Attrs: mustprogress uwtable
define linkonce_odr hidden noundef i32 @_ZNK4decl13get_family_idEv(ptr noundef nonnull align 8 dereferenceable(32) %this) #4 comdat align 2 {
entry:
  %this.addr = alloca ptr, align 8
  store ptr %this, ptr %this.addr, align 8
  %this1 = load ptr, ptr %this.addr, align 8
  %m_info = getelementptr inbounds %class.decl, ptr %this1, i32 0, i32 2
  %0 = load ptr, ptr %m_info, align 8
  %cmp = icmp eq ptr %0, null
  br i1 %cmp, label %cond.true, label %cond.false

cond.true:                                        ; preds = %entry
  br label %cond.end

cond.false:                                       ; preds = %entry
  %m_info2 = getelementptr inbounds %class.decl, ptr %this1, i32 0, i32 2
  %1 = load ptr, ptr %m_info2, align 8
  %call = call noundef i32 @_ZNK9decl_info13get_family_idEv(ptr noundef nonnull align 8 dereferenceable(17) %1)
  br label %cond.end

cond.end:                                         ; preds = %cond.false, %cond.true
  %cond = phi i32 [ -1, %cond.true ], [ %call, %cond.false ]
  ret i32 %cond
}

; Function Attrs: mustprogress uwtable
define linkonce_odr noundef i32 @_ZN9__gnu_cxx6__stoaIlicJiEEET0_PFT_PKT1_PPS3_DpT2_EPKcS5_PmS9_(ptr noundef %__convf, ptr noundef %__name, ptr noundef %__str, ptr noundef %__idx, i32 noundef %__base) #4 comdat personality ptr @__gxx_personality_v0 {
entry:
  %__convf.addr = alloca ptr, align 8
  %__name.addr = alloca ptr, align 8
  %__str.addr = alloca ptr, align 8
  %__idx.addr = alloca ptr, align 8
  %__base.addr = alloca i32, align 4
  %__ret = alloca i32, align 4
  %__endptr = alloca ptr, align 8
  %__save_errno = alloca %struct._Save_errno, align 4
  %__tmp = alloca i64, align 8
  %exn.slot = alloca ptr, align 8
  %ehselector.slot = alloca i32, align 4
  store ptr %__convf, ptr %__convf.addr, align 8
  store ptr %__name, ptr %__name.addr, align 8
  store ptr %__str, ptr %__str.addr, align 8
  store ptr %__idx, ptr %__idx.addr, align 8
  store i32 %__base, ptr %__base.addr, align 4
  call void @_ZZN9__gnu_cxx6__stoaIlicJiEEET0_PFT_PKT1_PPS3_DpT2_EPKcS5_PmS9_EN11_Save_errnoC2Ev(ptr noundef nonnull align 4 dereferenceable(4) %__save_errno)
  %0 = load ptr, ptr %__convf.addr, align 8
  %1 = load ptr, ptr %__str.addr, align 8
  %2 = load i32, ptr %__base.addr, align 4
  %call = invoke noundef i64 %0(ptr noundef %1, ptr noundef %__endptr, i32 noundef %2)
          to label %invoke.cont unwind label %lpad

invoke.cont:                                      ; preds = %entry
  store i64 %call, ptr %__tmp, align 8
  %3 = load ptr, ptr %__endptr, align 8
  %4 = load ptr, ptr %__str.addr, align 8
  %cmp = icmp eq ptr %3, %4
  br i1 %cmp, label %if.then, label %if.else

if.then:                                          ; preds = %invoke.cont
  %5 = load ptr, ptr %__name.addr, align 8
  invoke void @_ZSt24__throw_invalid_argumentPKc(ptr noundef %5) #17
          to label %invoke.cont1 unwind label %lpad

invoke.cont1:                                     ; preds = %if.then
  unreachable

lpad:                                             ; preds = %if.then6, %lor.rhs, %if.then, %entry
  %6 = landingpad { ptr, i32 }
          cleanup
  %7 = extractvalue { ptr, i32 } %6, 0
  store ptr %7, ptr %exn.slot, align 8
  %8 = extractvalue { ptr, i32 } %6, 1
  store i32 %8, ptr %ehselector.slot, align 4
  call void @_ZZN9__gnu_cxx6__stoaIlicJiEEET0_PFT_PKT1_PPS3_DpT2_EPKcS5_PmS9_EN11_Save_errnoD2Ev(ptr noundef nonnull align 4 dereferenceable(4) %__save_errno) #3
  br label %eh.resume

if.else:                                          ; preds = %invoke.cont
  %call2 = call ptr @__errno_location() #18
  %9 = load i32, ptr %call2, align 4
  %cmp3 = icmp eq i32 %9, 34
  br i1 %cmp3, label %lor.end, label %lor.rhs

lor.rhs:                                          ; preds = %if.else
  %10 = load i64, ptr %__tmp, align 8
  %call5 = invoke noundef zeroext i1 @_ZZN9__gnu_cxx6__stoaIlicJiEEET0_PFT_PKT1_PPS3_DpT2_EPKcS5_PmS9_EN10_Range_chk6_S_chkElSt17integral_constantIbLb1EE(i64 noundef %10)
          to label %invoke.cont4 unwind label %lpad

invoke.cont4:                                     ; preds = %lor.rhs
  br label %lor.end

lor.end:                                          ; preds = %invoke.cont4, %if.else
  %11 = phi i1 [ true, %if.else ], [ %call5, %invoke.cont4 ]
  br i1 %11, label %if.then6, label %if.else8

if.then6:                                         ; preds = %lor.end
  %12 = load ptr, ptr %__name.addr, align 8
  invoke void @_ZSt20__throw_out_of_rangePKc(ptr noundef %12) #17
          to label %invoke.cont7 unwind label %lpad

invoke.cont7:                                     ; preds = %if.then6
  unreachable

if.else8:                                         ; preds = %lor.end
  %13 = load i64, ptr %__tmp, align 8
  %conv = trunc i64 %13 to i32
  store i32 %conv, ptr %__ret, align 4
  br label %if.end

if.end:                                           ; preds = %if.else8
  br label %if.end9

if.end9:                                          ; preds = %if.end
  %14 = load ptr, ptr %__idx.addr, align 8
  %tobool = icmp ne ptr %14, null
  br i1 %tobool, label %if.then10, label %if.end11

if.then10:                                        ; preds = %if.end9
  %15 = load ptr, ptr %__endptr, align 8
  %16 = load ptr, ptr %__str.addr, align 8
  %sub.ptr.lhs.cast = ptrtoint ptr %15 to i64
  %sub.ptr.rhs.cast = ptrtoint ptr %16 to i64
  %sub.ptr.sub = sub i64 %sub.ptr.lhs.cast, %sub.ptr.rhs.cast
  %17 = load ptr, ptr %__idx.addr, align 8
  store i64 %sub.ptr.sub, ptr %17, align 8
  br label %if.end11

if.end11:                                         ; preds = %if.then10, %if.end9
  %18 = load i32, ptr %__ret, align 4
  call void @_ZZN9__gnu_cxx6__stoaIlicJiEEET0_PFT_PKT1_PPS3_DpT2_EPKcS5_PmS9_EN11_Save_errnoD2Ev(ptr noundef nonnull align 4 dereferenceable(4) %__save_errno) #3
  ret i32 %18

eh.resume:                                        ; preds = %lpad
  %exn = load ptr, ptr %exn.slot, align 8
  %sel = load i32, ptr %ehselector.slot, align 4
  %lpad.val = insertvalue { ptr, i32 } poison, ptr %exn, 0
  %lpad.val12 = insertvalue { ptr, i32 } %lpad.val, i32 %sel, 1
  resume { ptr, i32 } %lpad.val12
}

; Function Attrs: mustprogress uwtable
define linkonce_odr hidden noundef i32 @_ZNK3app13get_family_idEv(ptr noundef nonnull align 8 dereferenceable(32) %this) #4 comdat align 2 {
entry:
  %this.addr = alloca ptr, align 8
  store ptr %this, ptr %this.addr, align 8
  %this1 = load ptr, ptr %this.addr, align 8
  %call = call noundef ptr @_ZNK3app8get_declEv(ptr noundef nonnull align 8 dereferenceable(32) %this1)
  %call2 = call noundef i32 @_ZNK4decl13get_family_idEv(ptr noundef nonnull align 8 dereferenceable(32) %call)
  ret i32 %call2
}

; Function Attrs: mustprogress nounwind uwtable
define linkonce_odr hidden noundef i32 @_ZNK3app12get_num_argsEv(ptr noundef nonnull align 8 dereferenceable(32) %this) #5 comdat align 2 {
entry:
  %this.addr = alloca ptr, align 8
  store ptr %this, ptr %this.addr, align 8
  %this1 = load ptr, ptr %this.addr, align 8
  %m_num_args = getelementptr inbounds %class.app, ptr %this1, i32 0, i32 2
  %0 = load i32, ptr %m_num_args, align 8
  ret i32 %0
}

; Function Attrs: mustprogress nounwind uwtable
define linkonce_odr hidden noundef ptr @_Z6to_appPK3ast(ptr noundef %n) #5 comdat {
entry:
  %n.addr = alloca ptr, align 8
  store ptr %n, ptr %n.addr, align 8
  %0 = load ptr, ptr %n.addr, align 8
  ret ptr %0
}

; Function Attrs: mustprogress nounwind uwtable
define linkonce_odr hidden noundef i32 @_ZNK3ast8get_kindEv(ptr noundef nonnull align 4 dereferenceable(16) %this) #5 comdat align 2 {
entry:
  %this.addr = alloca ptr, align 8
  store ptr %this, ptr %this.addr, align 8
  %this1 = load ptr, ptr %this.addr, align 8
  %m_kind = getelementptr inbounds %class.ast, ptr %this1, i32 0, i32 1
  %bf.load = load i32, ptr %m_kind, align 4
  %bf.clear = and i32 %bf.load, 65535
  ret i32 %bf.clear
}

; Function Attrs: mustprogress uwtable
define linkonce_odr noundef i32 @_ZNSt7__cxx114stoiERKNS_12basic_stringIcSt11char_traitsIcESaIcEEEPmi(ptr noundef nonnull align 8 dereferenceable(32) %__str, ptr noundef %__idx, i32 noundef %__base) #4 comdat {
entry:
  %__str.addr = alloca ptr, align 8
  %__idx.addr = alloca ptr, align 8
  %__base.addr = alloca i32, align 4
  store ptr %__str, ptr %__str.addr, align 8
  store ptr %__idx, ptr %__idx.addr, align 8
  store i32 %__base, ptr %__base.addr, align 4
  %0 = load ptr, ptr %__str.addr, align 8
  %call = call noundef ptr @_ZNKSt7__cxx1112basic_stringIcSt11char_traitsIcESaIcEE5c_strEv(ptr noundef nonnull align 8 dereferenceable(32) %0) #3
  %1 = load ptr, ptr %__idx.addr, align 8
  %2 = load i32, ptr %__base.addr, align 4
  %call1 = call noundef i32 @_ZN9__gnu_cxx6__stoaIlicJiEEET0_PFT_PKT1_PPS3_DpT2_EPKcS5_PmS9_(ptr noundef @strtol, ptr noundef @.str.9, ptr noundef %call, ptr noundef %1, i32 noundef %2)
  ret i32 %call1
}

; Function Attrs: mustprogress nounwind uwtable
define linkonce_odr hidden noundef nonnull align 8 dereferenceable(8) ptr @_ZNK4decl8get_nameEv(ptr noundef nonnull align 8 dereferenceable(32) %this) #5 comdat align 2 {
entry:
  %this.addr = alloca ptr, align 8
  store ptr %this, ptr %this.addr, align 8
  %this1 = load ptr, ptr %this.addr, align 8
  %m_name = getelementptr inbounds %class.decl, ptr %this1, i32 0, i32 1
  ret ptr %m_name
}

; Function Attrs: mustprogress nounwind uwtable
define linkonce_odr hidden noundef ptr @_ZNK3app8get_declEv(ptr noundef nonnull align 8 dereferenceable(32) %this) #5 comdat align 2 {
entry:
  %this.addr = alloca ptr, align 8
  store ptr %this, ptr %this.addr, align 8
  %this1 = load ptr, ptr %this.addr, align 8
  %m_decl = getelementptr inbounds %class.app, ptr %this1, i32 0, i32 1
  %0 = load ptr, ptr %m_decl, align 8
  ret ptr %0
}

; Function Attrs: mustprogress uwtable
define linkonce_odr hidden noundef zeroext i1 @_Z17is_uninterp_constPK4expr(ptr noundef %n) #4 comdat {
entry:
  %n.addr = alloca ptr, align 8
  store ptr %n, ptr %n.addr, align 8
  %0 = load ptr, ptr %n.addr, align 8
  %call = call noundef i32 @_ZNK3ast8get_kindEv(ptr noundef nonnull align 4 dereferenceable(16) %0)
  %cmp = icmp eq i32 %call, 0
  br i1 %cmp, label %land.lhs.true, label %land.end

land.lhs.true:                                    ; preds = %entry
  %1 = load ptr, ptr %n.addr, align 8
  %call1 = call noundef ptr @_Z6to_appPK3ast(ptr noundef %1)
  %call2 = call noundef i32 @_ZNK3app12get_num_argsEv(ptr noundef nonnull align 8 dereferenceable(32) %call1)
  %cmp3 = icmp eq i32 %call2, 0
  br i1 %cmp3, label %land.rhs, label %land.end

land.rhs:                                         ; preds = %land.lhs.true
  %2 = load ptr, ptr %n.addr, align 8
  %call4 = call noundef ptr @_Z6to_appPK3ast(ptr noundef %2)
  %call5 = call noundef i32 @_ZNK3app13get_family_idEv(ptr noundef nonnull align 8 dereferenceable(32) %call4)
  %cmp6 = icmp eq i32 %call5, -1
  br label %land.end

land.end:                                         ; preds = %land.rhs, %land.lhs.true, %entry
  %3 = phi i1 [ false, %land.lhs.true ], [ false, %entry ], [ %cmp6, %land.rhs ]
  ret i1 %3
}

; Function Attrs: mustprogress uwtable
define hidden noundef zeroext i1 @_ZN6spacer11is_zk_constEPK3appRi(ptr noundef %a, ptr noundef nonnull align 4 dereferenceable(4) %n) #4 personality ptr @__gxx_personality_v0 {
entry:
  %retval = alloca i1, align 1
  %a.addr = alloca ptr, align 8
  %n.addr = alloca ptr, align 8
  %name = alloca ptr, align 8
  %ref.tmp = alloca %"class.std::__cxx11::basic_string", align 8
  %exn.slot = alloca ptr, align 8
  %ehselector.slot = alloca i32, align 4
  %ref.tmp6 = alloca %"class.std::__cxx11::basic_string", align 8
  %ref.tmp7 = alloca %"class.std::__cxx11::basic_string", align 8
  store ptr %a, ptr %a.addr, align 8
  store ptr %n, ptr %n.addr, align 8
  %0 = load ptr, ptr %a.addr, align 8
  %call = call noundef zeroext i1 @_Z17is_uninterp_constPK4expr(ptr noundef %0)
  br i1 %call, label %if.end, label %if.then

if.then:                                          ; preds = %entry
  store i1 false, ptr %retval, align 1
  br label %return

if.end:                                           ; preds = %entry
  %1 = load ptr, ptr %a.addr, align 8
  %call1 = call noundef ptr @_ZNK3app8get_declEv(ptr noundef nonnull align 8 dereferenceable(32) %1)
  %call2 = call noundef nonnull align 8 dereferenceable(8) ptr @_ZNK4decl8get_nameEv(ptr noundef nonnull align 8 dereferenceable(32) %call1)
  store ptr %call2, ptr %name, align 8
  %2 = load ptr, ptr %name, align 8
  call void @_ZNK6symbol3strB5cxx11Ev(ptr sret(%"class.std::__cxx11::basic_string") align 8 %ref.tmp, ptr noundef nonnull align 8 dereferenceable(8) %2)
  %call3 = invoke noundef i32 @_ZNKSt7__cxx1112basic_stringIcSt11char_traitsIcESaIcEE7compareEmmPKc(ptr noundef nonnull align 8 dereferenceable(32) %ref.tmp, i64 noundef 0, i64 noundef 3, ptr noundef @.str.7)
          to label %invoke.cont unwind label %lpad

invoke.cont:                                      ; preds = %if.end
  %cmp = icmp ne i32 %call3, 0
  call void @_ZNSt7__cxx1112basic_stringIcSt11char_traitsIcESaIcEED1Ev(ptr noundef nonnull align 8 dereferenceable(32) %ref.tmp) #3
  br i1 %cmp, label %if.then4, label %if.end5

if.then4:                                         ; preds = %invoke.cont
  store i1 false, ptr %retval, align 1
  br label %return

lpad:                                             ; preds = %if.end
  %3 = landingpad { ptr, i32 }
          cleanup
  %4 = extractvalue { ptr, i32 } %3, 0
  store ptr %4, ptr %exn.slot, align 8
  %5 = extractvalue { ptr, i32 } %3, 1
  store i32 %5, ptr %ehselector.slot, align 4
  call void @_ZNSt7__cxx1112basic_stringIcSt11char_traitsIcESaIcEED1Ev(ptr noundef nonnull align 8 dereferenceable(32) %ref.tmp) #3
  br label %eh.resume

if.end5:                                          ; preds = %invoke.cont
  %6 = load ptr, ptr %name, align 8
  call void @_ZNK6symbol3strB5cxx11Ev(ptr sret(%"class.std::__cxx11::basic_string") align 8 %ref.tmp7, ptr noundef nonnull align 8 dereferenceable(8) %6)
  invoke void @_ZNKSt7__cxx1112basic_stringIcSt11char_traitsIcESaIcEE6substrEmm(ptr sret(%"class.std::__cxx11::basic_string") align 8 %ref.tmp6, ptr noundef nonnull align 8 dereferenceable(32) %ref.tmp7, i64 noundef 3, i64 noundef -1)
          to label %invoke.cont9 unwind label %lpad8

invoke.cont9:                                     ; preds = %if.end5
  %call12 = invoke noundef i32 @_ZNSt7__cxx114stoiERKNS_12basic_stringIcSt11char_traitsIcESaIcEEEPmi(ptr noundef nonnull align 8 dereferenceable(32) %ref.tmp6, ptr noundef null, i32 noundef 10)
          to label %invoke.cont11 unwind label %lpad10

invoke.cont11:                                    ; preds = %invoke.cont9
  %7 = load ptr, ptr %n.addr, align 8
  store i32 %call12, ptr %7, align 4
  call void @_ZNSt7__cxx1112basic_stringIcSt11char_traitsIcESaIcEED1Ev(ptr noundef nonnull align 8 dereferenceable(32) %ref.tmp6) #3
  call void @_ZNSt7__cxx1112basic_stringIcSt11char_traitsIcESaIcEED1Ev(ptr noundef nonnull align 8 dereferenceable(32) %ref.tmp7) #3
  store i1 true, ptr %retval, align 1
  br label %return

lpad8:                                            ; preds = %if.end5
  %8 = landingpad { ptr, i32 }
          cleanup
  %9 = extractvalue { ptr, i32 } %8, 0
  store ptr %9, ptr %exn.slot, align 8
  %10 = extractvalue { ptr, i32 } %8, 1
  store i32 %10, ptr %ehselector.slot, align 4
  br label %ehcleanup

lpad10:                                           ; preds = %invoke.cont9
  %11 = landingpad { ptr, i32 }
          cleanup
  %12 = extractvalue { ptr, i32 } %11, 0
  store ptr %12, ptr %exn.slot, align 8
  %13 = extractvalue { ptr, i32 } %11, 1
  store i32 %13, ptr %ehselector.slot, align 4
  call void @_ZNSt7__cxx1112basic_stringIcSt11char_traitsIcESaIcEED1Ev(ptr noundef nonnull align 8 dereferenceable(32) %ref.tmp6) #3
  br label %ehcleanup

ehcleanup:                                        ; preds = %lpad10, %lpad8
  call void @_ZNSt7__cxx1112basic_stringIcSt11char_traitsIcESaIcEED1Ev(ptr noundef nonnull align 8 dereferenceable(32) %ref.tmp7) #3
  br label %eh.resume

return:                                           ; preds = %invoke.cont11, %if.then4, %if.then
  %14 = load i1, ptr %retval, align 1
  ret i1 %14

eh.resume:                                        ; preds = %ehcleanup, %lpad
  %exn = load ptr, ptr %exn.slot, align 8
  %sel = load i32, ptr %ehselector.slot, align 4
  %lpad.val = insertvalue { ptr, i32 } poison, ptr %exn, 0
  %lpad.val13 = insertvalue { ptr, i32 } %lpad.val, i32 %sel, 1
  resume { ptr, i32 } %lpad.val13
}