; Function Attrs: mustprogress uwtable
define hidden noundef zeroext i1 @_ZN6spacer11is_zk_constEPK3appRi(ptr nocapture noundef readonly %a, ptr nocapture noundef nonnull writeonly align 4 dereferenceable(4) %n) local_unnamed_addr #3 personality ptr @__gxx_personality_v0 {
entry:
  %__endptr.i.i = alloca ptr, align 8
  %ref.tmp = alloca %"class.std::__cxx11::basic_string", align 8
  %ref.tmp6 = alloca %"class.std::__cxx11::basic_string", align 8
  %ref.tmp7 = alloca %"class.std::__cxx11::basic_string", align 8
  %m_kind.i.i = getelementptr inbounds i8, ptr %a, i64 4
  %bf.load.i.i = load i32, ptr %m_kind.i.i, align 4
  %bf.clear.i.i = and i32 %bf.load.i.i, 65535
  %cmp.i = icmp eq i32 %bf.clear.i.i, 0
  br i1 %cmp.i, label %land.lhs.true.i, label %return

land.lhs.true.i:                                  ; preds = %entry
  %m_num_args.i.i = getelementptr inbounds i8, ptr %a, i64 24
  %0 = load i32, ptr %m_num_args.i.i, align 8
  %cmp3.i = icmp eq i32 %0, 0
  br i1 %cmp3.i, label %land.rhs.i, label %return

land.rhs.i:                                       ; preds = %land.lhs.true.i
  %m_decl.i.i.i = getelementptr inbounds i8, ptr %a, i64 16
  %1 = load ptr, ptr %m_decl.i.i.i, align 8
  %m_info.i.i.i = getelementptr inbounds i8, ptr %1, i64 24
  %2 = load ptr, ptr %m_info.i.i.i, align 8
  %cmp.i.i.i = icmp eq ptr %2, null
  br i1 %cmp.i.i.i, label %if.end, label %_Z17is_uninterp_constPK4expr.exit

_Z17is_uninterp_constPK4expr.exit:                ; preds = %land.rhs.i
  %3 = load i32, ptr %2, align 8
  %4 = icmp eq i32 %3, -1
  br i1 %4, label %if.end, label %return

if.end:                                           ; preds = %land.rhs.i, %_Z17is_uninterp_constPK4expr.exit
  %m_name.i = getelementptr inbounds i8, ptr %1, i64 16
  call void @_ZNK6symbol3strB5cxx11Ev(ptr nonnull sret(%"class.std::__cxx11::basic_string") align 8 %ref.tmp, ptr noundef nonnull align 8 dereferenceable(8) %m_name.i)
  %call3 = invoke noundef i32 @_ZNKSt7__cxx1112basic_stringIcSt11char_traitsIcESaIcEE7compareEmmPKc(ptr noundef nonnull align 8 dereferenceable(32) %ref.tmp, i64 noundef 0, i64 noundef 3, ptr noundef nonnull @.str.7)
          to label %invoke.cont unwind label %lpad

invoke.cont:                                      ; preds = %if.end
  %cmp.not = icmp eq i32 %call3, 0
  call void @_ZNSt7__cxx1112basic_stringIcSt11char_traitsIcESaIcEED1Ev(ptr noundef nonnull align 8 dereferenceable(32) %ref.tmp) #18
  br i1 %cmp.not, label %if.end5, label %return

lpad:                                             ; preds = %if.end
  %5 = landingpad { ptr, i32 }
          cleanup
  br label %eh.resume

if.end5:                                          ; preds = %invoke.cont
  call void @_ZNK6symbol3strB5cxx11Ev(ptr nonnull sret(%"class.std::__cxx11::basic_string") align 8 %ref.tmp7, ptr noundef nonnull align 8 dereferenceable(8) %m_name.i)
  invoke void @_ZNKSt7__cxx1112basic_stringIcSt11char_traitsIcESaIcEE6substrEmm(ptr nonnull sret(%"class.std::__cxx11::basic_string") align 8 %ref.tmp6, ptr noundef nonnull align 8 dereferenceable(32) %ref.tmp7, i64 noundef 3, i64 noundef -1)
          to label %invoke.cont9 unwind label %lpad8

invoke.cont9:                                     ; preds = %if.end5
  %call.i = call noundef ptr @_ZNKSt7__cxx1112basic_stringIcSt11char_traitsIcESaIcEE5c_strEv(ptr noundef nonnull align 8 dereferenceable(32) %ref.tmp6) #18
  call void @llvm.lifetime.start.p0(i64 8, ptr nonnull %__endptr.i.i)
  %call.i.i.i = tail call ptr @__errno_location() #21
  %6 = load i32, ptr %call.i.i.i, align 4
  store i32 0, ptr %call.i.i.i, align 4
  %call.i.i = call noundef i64 @strtol(ptr noundef %call.i, ptr noundef nonnull %__endptr.i.i, i32 noundef 10)
  %7 = load ptr, ptr %__endptr.i.i, align 8
  %cmp.i.i = icmp eq ptr %7, %call.i
  br i1 %cmp.i.i, label %if.then.i.i, label %if.else.i.i

if.then.i.i:                                      ; preds = %invoke.cont9
  invoke void @_ZSt24__throw_invalid_argumentPKc(ptr noundef nonnull @.str.9) #20
          to label %invoke.cont1.i.i unwind label %lpad.i.i

invoke.cont1.i.i:                                 ; preds = %if.then.i.i
  unreachable

lpad.i.i:                                         ; preds = %if.then6.i.i, %if.then.i.i
  %8 = landingpad { ptr, i32 }
          cleanup
  %9 = load i32, ptr %call.i.i.i, align 4
  %cmp.i.i.i5 = icmp eq i32 %9, 0
  br i1 %cmp.i.i.i5, label %if.then.i.i.i, label %lpad10.body

if.then.i.i.i:                                    ; preds = %lpad.i.i
  store i32 %6, ptr %call.i.i.i, align 4
  br label %lpad10.body

if.else.i.i:                                      ; preds = %invoke.cont9
  %10 = load i32, ptr %call.i.i.i, align 4
  %cmp3.i.i = icmp eq i32 %10, 34
  %11 = add i64 %call.i.i, -2147483648
  %12 = icmp ult i64 %11, -4294967296
  %or.cond.i.i = or i1 %12, %cmp3.i.i
  br i1 %or.cond.i.i, label %if.then6.i.i, label %if.else8.i.i

if.then6.i.i:                                     ; preds = %if.else.i.i
  invoke void @_ZSt20__throw_out_of_rangePKc(ptr noundef nonnull @.str.9) #20
          to label %invoke.cont7.i.i unwind label %lpad.i.i

invoke.cont7.i.i:                                 ; preds = %if.then6.i.i
  unreachable

if.else8.i.i:                                     ; preds = %if.else.i.i
  %cmp.i8.i.i = icmp eq i32 %10, 0
  br i1 %cmp.i8.i.i, label %if.then.i9.i.i, label %invoke.cont11

if.then.i9.i.i:                                   ; preds = %if.else8.i.i
  store i32 %6, ptr %call.i.i.i, align 4
  br label %invoke.cont11

invoke.cont11:                                    ; preds = %if.then.i9.i.i, %if.else8.i.i
  %conv.i.i = trunc i64 %call.i.i to i32
  call void @llvm.lifetime.end.p0(i64 8, ptr nonnull %__endptr.i.i)
  store i32 %conv.i.i, ptr %n, align 4
  call void @_ZNSt7__cxx1112basic_stringIcSt11char_traitsIcESaIcEED1Ev(ptr noundef nonnull align 8 dereferenceable(32) %ref.tmp6) #18
  call void @_ZNSt7__cxx1112basic_stringIcSt11char_traitsIcESaIcEED1Ev(ptr noundef nonnull align 8 dereferenceable(32) %ref.tmp7) #18
  br label %return

lpad8:                                            ; preds = %if.end5
  %13 = landingpad { ptr, i32 }
          cleanup
  br label %eh.resume

lpad10.body:                                      ; preds = %lpad.i.i, %if.then.i.i.i
  call void @_ZNSt7__cxx1112basic_stringIcSt11char_traitsIcESaIcEED1Ev(ptr noundef nonnull align 8 dereferenceable(32) %ref.tmp6) #18
  br label %eh.resume

return:                                           ; preds = %entry, %land.lhs.true.i, %invoke.cont, %_Z17is_uninterp_constPK4expr.exit, %invoke.cont11
  %retval.0 = phi i1 [ true, %invoke.cont11 ], [ false, %_Z17is_uninterp_constPK4expr.exit ], [ false, %invoke.cont ], [ false, %land.lhs.true.i ], [ false, %entry ]
  ret i1 %retval.0

eh.resume:                                        ; preds = %lpad8, %lpad10.body, %lpad
  %ref.tmp7.sink = phi ptr [ %ref.tmp, %lpad ], [ %ref.tmp7, %lpad10.body ], [ %ref.tmp7, %lpad8 ]
  %.pn.pn = phi { ptr, i32 } [ %5, %lpad ], [ %8, %lpad10.body ], [ %13, %lpad8 ]
  call void @_ZNSt7__cxx1112basic_stringIcSt11char_traitsIcESaIcEED1Ev(ptr noundef nonnull align 8 dereferenceable(32) %ref.tmp7.sink) #18
  resume { ptr, i32 } %.pn.pn
}